
 Start         Length     Name                   Class
 0001:00000000 000009000H cseg01                 CODE
 0002:00000000 0000033F0H dseg02                 STACK


  Address         Publics by Value

 0001:00010003       ___begtext
 0001:00010010       game
 0001:0001007C       jpt_100D9
 0001:0001015E       def_100D9
 0001:00010168       FN_init_setup
 0001:00010222       FN_init_title
 0001:000102C3       FN_title
 0001:00010315       FN_init_language
 0001:000103B8       FN_language
 0001:000103D0       jpt_1040C
 0001:00010459       def_1040C
 0001:000105D2       FN_init_sound_of
 0001:0001066E       FN_sound_of
 0001:00010766       FN_init_sound_io
 0001:00010802       FN_sound_io
 0001:00010994       jpt_109D9
 0001:00010A6C       def_109D9
 0001:00010BED       FN_init_sound_c
 0001:00010C89       FN_sound_c
 0001:00010D81       FN_confirm
 0001:00010DA3       FN_write_setup
 0001:00010ECE       FN_init_select
 0001:00010F74       FN_select
 0001:00011072       FN_run
 0001:000110F6       FN_exit
 0001:00011129       draw_out_box
 0001:000112A4       setup_light
 0001:000113EB       setup_game
 0001:00011438       reset_game
 0001:00011461       fade_palette
 0001:0001151E       mygets
 0001:000116EA       show_picture
 0001:00011791       fade_in
 0001:000117FC       fade_out
 0001:00011867       search_drive
 0001:000119DE       FileExist
 0001:00011A15       hilight_box
 0001:00011AB1       main
 0001:00011B87       setup_host
 0001:00011BD6       reset_host
 0001:00011C04       setup_a_sprite
 0001:00011C86       reset_a_sprite
 0001:00011D19       get_input
 0001:00011D3E       valid_ascii
 0001:00011D5B       jpt_11ECB
 0001:00012018       def_11ECB
 0001:00012026       copyright_requested
 0001:0001205D       setup_sprites
 0001:00012092       reset_sprites
 0001:000120C1       count_characters
 0001:00012108       set_text_window
 0001:00012147       get_font_width
 0001:00012182       get_font_height
 0001:000121BD       text_width
 0001:000122C2       text_count_spaces
 0001:00012311       print_l
 0001:0001233D       jpt_1235F
 0001:0001251D       def_1235F
 0001:00012836       print_o
 0001:00012861       jpt_12883
 0001:00012A41       def_12883
 0001:00012C50       print_w
 0001:00012C77       draw_bar_vert
 0001:00012D10       draw_bar_hori
 0001:00012DAC       make_fade_table
 0001:00012E57       draw_a_sprite
 0001:00012E9A       draw_color_sprite
 0001:00012EE8       set_colour
 0001:00012F0C       store_STK
 0001:00012F13       __CHK
 0001:00012F23       __GRO
 0001:00012F26       __STK
 0001:00012F43       __STKOVERFLOW
 0001:00012F52       OpenKeyboard
 0001:00012F63       CloseKeyboard
 0001:00012F74       Keyboard
 0001:00012FAE       MyOpen
 0001:00013019       RncFileLength
 0001:000130EF       MyRead
 0001:00013122       MyClose
 0001:00013147       LoadFileAt
 0001:000131E0       SwapScreensMCGA
 0001:00013219       ResetMouse
 0001:00013265       SetMouseLimits
 0001:000133C0       ResetScreen
 0001:000133F0       memcpy
 0001:0001341A       atoi
 0001:0001346D       mem_putc_
 0001:00013483       sprintf
 0001:000134AF       strlen
 0001:000134CB       MyWrite
 0001:00013500       WaitVbi
 0001:0001350E       system
 0001:00013578       remove
 0001:00013588       printf
 0001:000135AA       LoadAllData
 0001:000136BD       FreeAllData
 0001:0001374C       SetPaletteMCGA
 0001:00013774       memmove
 0001:000137D0       memset
 0001:000137F4       _dos_getdiskfree
 0001:0001382B       strcpy
 0001:00013854       strcat
 0001:0001388F       mkdir
 0001:000138B3       access
 0001:000138F8       start
 0001:00013B25       __exit_
 0001:00013B27       __exit_with_msg_
 0001:00013B58       __GETDS
 0001:00013B60       SetupScreenMCGA
 0001:00013BFC       DrawBoxMCGA
 0001:00013C7C       DrawASpriteMCGA
 0001:00013CB4       DrawASpriteVres256
 0001:00013CEC       DrawSpriteMCGA
 0001:00013D01       DrawSpriteVres256
 0001:0001418D       nullsub_4
 0001:00014190       DosKeyboard
 0001:000141D8       creat
 0001:000141ED       setmode
 0001:000142A3       close
 0001:000142DD       open
 0001:000142FC       sopen
 0001:000144BC       __set_binary
 0001:00014528       strncmp
 0001:0001455A       filelength
 0001:00014599       read
 0001:00014674       _UnpackM1
 0001:00014808       read_long
 0001:00014811       input_value
 0001:00014854       input_bits
 0001:000148D7       make_huftable
 0001:00014970       UndoMouseMCGA
 0001:00014A01       BackupMouseMCGA
 0001:00014AAC       PlaceMouseMCGA
 0001:00014BD6       RemoveReqMouseMCGA
 0001:00014BFB       UndrawWMouseMCGA
 0001:00014C8C       RemoveMouse
 0001:00014CA3       int386
 0001:00014CCC       free
 0001:00014CDC       _nfree
 0001:00014D01       __prtf
 0001:00015630       write
 0001:00015808       getenv
 0001:0001585D       __Slash_C
 0001:0001588A       spawnve_sub3
 0001:000158A9       spawnve_sub2
 0001:000158D8       spawnve
 0001:00015C32       spawnlp
 0001:00015C49       unlink
 0001:00015C6D       __fprtf_cb1
 0001:00015C87       __fprtf
 0001:00015D07       LoadData
 0001:0001614B       gets
 0001:000161DE       MyFree
 0001:00016290       __STOSB
 0001:000162C7       __STOSD
 0001:00016333       _dosret0
 0001:0001634B       _dosretax
 0001:00016362       __EINVAL
 0001:00016373       _set_errno
 0001:000163E3       __CMain
 0001:00016432       __InitRtns
 0001:00016475       __FiniRtns
 0001:000164B8       __Init_Argv
 0001:0001656B       __Init_Argv_sub1
 0001:00016646       SetGraphicsWindow
 0001:000166AB       __IOMode
 0001:000166FD       __SetIOMode
 0001:00016715       __get_errno_ptr
 0001:0001671B       __get_doserrno_ptr
 0001:00016721       isatty
 0001:00016741       lseek
 0001:00016782       segread
 0001:000167AF       int386x
 0001:000167D0       malloc
 0001:000167E0       _nmalloc
 0001:00016854       __MemAllocator
 0001:00016904       __MemFree
 0001:00016A10       a123456789abcde
 0001:00016A34       utoa
 0001:00016A81       itoa
 0001:00016AB1       W?_no_support_loaded$n__v
 0001:00016ABE       a123456789abcde_0
 0001:00016AE2       ultoa
 0001:00016B2F       ltoa
 0001:00016B5F       toupper
 0001:00016B74       stackavail
 0001:00016B7D       strnicmp
 0001:00016BCC       _dos_findfirst
 0001:00016BF9       _dos_findnext
 0001:00016C19       _dos_findnext__sub2
 0001:00016C3C       _dos_findnext__sub1
 0001:00016C5F       __ccmdline_sub1
 0001:00016C78       __cenvarg
 0001:00016DD3       __ccmdline
 0001:00016E3F       __dospawn
 0001:00016F4B       _splitpath2
 0001:00016FF0       spawnve_sub1
 0001:00016FF1       pickup
 0001:00017011       _makepath
 0001:00017101       strcmpi
 0001:00017114       stricmp
 0001:00017153       spawnl
 0001:00017170       spawnvp
 0001:0001718C       fputc
 0001:00017234       __ioalloc
 0001:000172AB       __flush
 0001:00017348       MyAlloc
 0001:0001746F       fgetc
 0001:000174E8       __filbuf
 0001:00017513       __fill_buffer
 0001:000175BE       __CommonInit
 0001:000175C9       __null_int23_exit
 0001:000175CA       exit
 0001:000175DC       _exit
 0001:000175F3       __InitFiles
 0001:00017638       __full_io_exit
 0001:00017647       fcloseall
 0001:00017652       __fcloseall
 0001:000176A0       __int386x_
 0001:000176FB       _DoINTR_
 0001:00017745       _DoINTR_sub1
 0001:00017A78       __LastFree
 0001:00017A9B       __ExpandDGROUP_sub1
 0001:00017B3F       __ExpandDGROUP
 0001:00017D36       __nmemneed
 0001:00017D3D       __setenvp
 0001:00017E20       __doserror_
 0001:00017E33       spawnvpe
 0001:00017F7F       __chktty
 0001:00017FAC       __qwrite
 0001:00018029       flushall
 0001:00018034       __flushall
 0001:0001806C       getche
 0001:00018087       __qread
 0001:000180B8       __allocfp
 0001:0001814D       __freefp
 0001:00018180       __purgefp
 0001:000181A2       fclose
 0001:000181CE       __shutdown_stream
 0001:00018205       __MkTmpFile
 0001:00018284       __doclose
 0001:00018322       sbrk
 0001:000183BF       __brk
 0001:00018469       strchr
 0001:00018487       getpid
 0001:0001848D       ftell
 0001:000184C1       tell
 0001:0001850C       DrawLineMCGA
 0001:0001852A       DrawLineVres256
 0002:00020000       __nullarea
 0002:00020004       a2357
 0002:0002000C       a10
 0002:0002000F       a0
 0002:00020011       a1
 0002:00020013       a220
 0002:00020017       a240
 0002:0002001B       aIrq
 0002:0002001F       aDma
 0002:00020023       aIo
 0002:00020026       aSave
 0002:0002002B       aSynd
 0002:00020031       aSave2
 0002:00020037       aCSyndSyndInf
 0002:00020048       aDataTitleDat
 0002:00020057       aDataLanguageDa
 0002:00020069       aDataSoundofDat
 0002:0002007A       aDataSoundioDat
 0002:0002008B       aDataSoundcDat
 0002:0002009B       aSmainS
 0002:000200A4       aMainCDS
 0002:000200B1       aSmainIirqDIdma
 0002:000200CE       aMainCDIirqDIdm
 0002:000200EF       aDataSelectDat
 0002:000200FF       aCdSyndicat
 0002:0002010B       aCd
 0002:00020111       aCdDatadisk
 0002:0002011D       aDataLightDat
 0002:0002012C       aDataSelectDat_0
 0002:0002013C       aGeneratingLigh
 0002:00020156       aSavingLightTab
 0002:0002016C       aLoadingLightTa
 0002:00020183       aCS
 0002:0002018C       aCopyrightC1993
 0002:000201BA       aAllRightsReser
 0002:000201D0       aErrorOpeningS
 0002:000201E4       aErrorDecompres
 0002:000201FC       aComspec
 0002:00020204       aCmdExe
 0002:0002020C       aCommandCom
 0002:00020218       aCmd
 0002:0002021C       aCommand
 0002:00020224       aNotEnoughMemor
 0002:00020246       aMemoryControlB
 0002:00020268       aDescriptorsUna
 0002:00020285       aUnknownErrorS
 0002:00020297       aPressReturnToC
 0002:000202B1       aSNotFound
 0002:000202BF       aDErrorSOccured
 0002:000202E3       aCmd_0
 0002:000202E8       aBat
 0002:000202ED       aCom
 0002:000202F2       aExe
 0002:000202F7       aComspec_0
 0002:000202FF       aCmd_1
 0002:00020303       aCommand_0
 0002:0002030C       aMemoryControlB_0
 0002:0002032D       aInvalidMemoryS
 0002:00020346       aInvalidSelecto
 0002:0002035C       aFloatingPointS
 0002:00020380       aFailedLowMemAl
 0002:00020396       aFailedLowMemAl_0
 0002:000203AB       aFailedAllocOfD
 0002:000203D8       aPath
 0002:000203E0       _IsTable
 0002:000204E4       sound_irq
 0002:000204E5       sound_dma
 0002:000204E6       sound_io
 0002:000204E7       seed
 0002:000204EB       vbi_timer
 0002:000204EF       text_xpos
 0002:000204F1       text_ypos
 0002:000204F3       text_xsize
 0002:000204F5       text_ysize
 0002:000204F8       fade_counter
 0002:000204F9       fade_direction
 0002:000204FA       l_mode
 0002:000204FB       position
 0002:000204FD       limit
 0002:000204FF       scroll_position
 0002:00020503       scroll_selected
 0002:00020507       language
 0002:00020508       cd_drive_letter
 0002:00020509       selected
 0002:0002050A       confirm
 0002:0002050B       no_sound
 0002:0002050C       irq_list
 0002:00020520       dma_list
 0002:0002052C       io_list
 0002:00020534       sound_menu
 0002:00020558       mcgafiles
 0002:00020634       aPaletteDat
 0002:000206B8       sintable
 0002:000208B8       costable
 0002:00020AB8       ascii_remap
 0002:00020BB8       cursor_colour
 0002:00020BB9       hilight_colour
 0002:00020BBC       stored_stk
 0002:00020BBE       aStackOverflow
 0002:00020BD0       inkey_asckey
 0002:00020BD1       a1234567890Qwer
 0002:00020BEE       aAsdfghjkl
 0002:00020BFB       aZxcvbnm
 0002:00020C44       MouseOldX
 0002:00020C46       MouseOldY
 0002:00020C48       MouseOldW
 0002:00020C4A       MouseOldH
 0002:00020C4C       MouseSwap
 0002:00020C50       MouseX
 0002:00020C52       MouseY
 0002:00020C54       MMouseX
 0002:00020C56       MMouseY
 0002:00020C58       MDoubleSpeed
 0002:00020C5A       PlayMode
 0002:00020C5B       MouseFlag
 0002:00020C5C       MouseInstalled
 0002:00020C60       DrawFlags
 0002:00020C64       __GDAptr
 0002:00020C68       __D16Infoseg
 0002:00020C6A       __x386_zero_base_selector
 0002:00020C6C       _argc
 0002:00020C70       _argv
 0002:00020C74       GlassMap
 0002:00020C78       _dynend
 0002:00020C7C       _curbrk
 0002:00020C80       _LpCmdLine
 0002:00020C84       _LpPgmName
 0002:00020C88       _psp
 0002:00020C8C       _STACKLOW
 0002:00020C90       _STACKTOP
 0002:00020C94       __ASTACKSIZ
 0002:00020C98       __ASTACKPTR
 0002:00020C9C       _cbyte
 0002:00020CA0       _cbyte2
 0002:00020CA4       _child
 0002:00020CA8       __no87
 0002:00020CAA       _Extender
 0002:00020CAB       __X32VM
 0002:00020CAC       _Envptr
 0002:00020CB2       _osmajor
 0002:00020CB3       _osminor
 0002:00020CB4       ___FPE_handler
 0002:00020E50       __iob
 0002:00021058       __tmpfnext
 0002:00021059       _fmode
 0002:00021078       __NFiles
 0002:0002107C       __init_mode
 0002:000210CC       _iomode
 0002:000210D0       __umaskval
 0002:000210D4       __nheap
 0002:000210D8       __nheapbeg
 0002:000210DC       __nheapblk
 0002:00021104       __EFG_printf
 0002:00021108       __EFG_scanf
 0002:0002110C       environ
 0002:00021110       __env_mask
 0002:0002113C       __Save8087
 0002:00021140       __Rest8087
 0002:00021144       TotalAllocation
 0002:00021148       __atexit
 0002:0002114C       __int23_exit
 0002:00021150       __FPE_handler_exit
 0002:00021154       _amblksiz
 0002:00021178       string_input
 0002:00021278       font_data
 0002:0002127C       user_font
 0002:00021280       end_fonts
 0002:00021284       fonts
 0002:00021288       pointer
 0002:0002128C       palette
 0002:00021290       bscreen
 0002:00021294       end_pointers
 0002:00021298       fade_tables
 0002:0002129C       pointer_data
 0002:000212A0       ascii
 0002:000212A4       exe_string
 0002:000212CC       topalette
 0002:000212D0       frompalette
 0002:000212D4       bpalette
 0002:000212D8       flags
 0002:000212E0       int_mode
 0002:000212E2       mode
 0002:000212E4       auto_setup
 0002:000212E8       KeyOn
 0002:00021368       Inkey
 0002:00021369       Shift
 0002:0002136C       CurrentPointer
 0002:00021370       MouseOldData
 0002:00021374       ScrSeg
 0002:00021378       MDoubleTime
 0002:0002137A       DoubleButton
 0002:0002137C       MiddleButton
 0002:0002137E       RightButton
 0002:00021380       LeftButton
 0002:00021382       MMiddleButton
 0002:00021384       MRightButton
 0002:00021386       MLeftButton
 0002:00021388       ScreenWidth
 0002:0002138C       WScreen
 0002:00021390       ScreenHeight
 0002:00021394       MGraphicsWindowWidth
 0002:00021398       GraphicsWindowWidth
 0002:0002139C       MGraphicsWindowLeft
 0002:000213A0       GraphicsWindowLeft
 0002:000213A4       MGraphicsWindowBottom
 0002:000213A8       GraphicsWindowBottom
 0002:000213AC       MGraphicsWindowTop
 0002:000213B0       GraphicsWindowTop
 0002:000213B4       MGraphicsWindowRight
 0002:000213B8       MGraphicsWindowHeight
 0002:000213BC       GraphicsWindowRight
 0002:000213C0       GraphicsWindowHeight
 0002:000213C4       OldVideoMode
 0002:000213C6       ScreenMode
 0002:000213C8       __ClosedStreams
 0002:000213CC       errno
 0002:000213D0       _doserrno
 0002:000213D4       __OpenStreams
 0002:000213D8       __nheap_clean
 0002:000213D9       __fheap_clean
 0002:000213DC       ___Argv
 0002:000213E0       ___Argc
 0002:000213E4       __minreal

Program entry point at 0001:000038F8
